(lp1
(lp2
I7
aI0
aI0
aI4
aa(lp3
I5
aI0
aI0
aI0
aa(lp4
I15
aI0
aI0
aI0
aa(lp5
I28
aI0
aI0
aI8
aa(lp6
I26
aI0
aI0
aI0
aa(lp7
I33
aI0
aI0
aI0
aa(lp8
I5
aI0
aI0
aI0
aa(lp9
I4
aI0
aI0
aI0
aa(lp10
I16
aI0
aI0
aI0
aa(lp11
I14
aI0
aI0
aI0
aa(lp12
I4
aI0
aI0
aI0
aa(lp13
I5
aI0
aI0
aI0
aa(lp14
I4
aI0
aI0
aI0
aa(lp15
I7
aI0
aI0
aI0
aa(lp16
I5
aI0
aI0
aI0
aa(lp17
I5
aI0
aI0
aI0
aa(lp18
I4
aI0
aI0
aI0
aa(lp19
I26
aI0
aI0
aI0
aa(lp20
I4
aI0
aI0
aI0
aa(lp21
I21
aI0
aI0
aI0
aa.