(lp1
(lp2
I12
aI0
aI0
aI0
aa(lp3
I13
aI0
aI0
aI0
aa(lp4
I19
aI0
aI0
aI0
aa(lp5
I7
aI0
aI0
aI0
aa(lp6
I10
aI0
aI0
aI0
aa(lp7
I4
aI0
aI0
aI0
aa(lp8
I17
aI0
aI0
aI0
aa(lp9
I13
aI0
aI0
aI0
aa(lp10
I5
aI0
aI0
aI0
aa(lp11
I8
aI0
aI0
aI0
aa(lp12
I6
aI0
aI0
aI2
aa(lp13
I5
aI0
aI0
aI0
aa(lp14
I4
aI0
aI0
aI0
aa(lp15
I7
aI0
aI0
aI0
aa(lp16
I14
aI0
aI0
aI0
aa(lp17
I4
aI0
aI0
aI0
aa(lp18
I5
aI0
aI0
aI0
aa(lp19
I19
aI0
aI0
aI0
aa(lp20
I4
aI0
aI0
aI0
aa(lp21
I15
aI0
aI0
aI0
aa(lp22
I12
aI0
aI0
aI0
aa(lp23
I25
aI0
aI0
aI0
aa(lp24
I6
aI0
aI0
aI0
aa(lp25
I5
aI0
aI0
aI0
aa(lp26
I8
aI0
aI0
aI0
aa(lp27
I9
aI0
aI0
aI0
aa(lp28
I19
aI0
aI0
aI0
aa(lp29
I55
aI0
aI0
aI0
aa(lp30
I11
aI0
aI0
aI0
aa(lp31
I4
aI0
aI0
aI0
aa(lp32
I14
aI0
aI0
aI0
aa(lp33
I5
aI0
aI0
aI0
aa(lp34
I9
aI0
aI0
aI0
aa(lp35
I8
aI0
aI0
aI0
aa(lp36
I4
aI0
aI0
aI0
aa(lp37
I23
aI0
aI0
aI0
aa(lp38
I9
aI0
aI0
aI0
aa(lp39
I5
aI0
aI0
aI0
aa(lp40
I8
aI0
aI0
aI0
aa(lp41
I4
aI0
aI0
aI0
aa(lp42
I5
aI0
aI0
aI0
aa(lp43
I7
aI0
aI0
aI0
aa(lp44
I9
aI0
aI0
aI0
aa(lp45
I4
aI0
aI0
aI0
aa(lp46
I6
aI0
aI0
aI0
aa(lp47
I6
aI0
aI0
aI0
aa(lp48
I18
aI0
aI0
aI0
aa(lp49
I9
aI0
aI0
aI0
aa(lp50
I6
aI0
aI0
aI0
aa(lp51
I12
aI0
aI0
aI0
aa(lp52
I11
aI0
aI0
aI0
aa(lp53
I6
aI0
aI0
aI0
aa(lp54
I6
aI0
aI0
aI4
aa(lp55
I11
aI0
aI0
aI0
aa(lp56
I4
aI0
aI0
aI0
aa(lp57
I15
aI0
aI0
aI0
aa(lp58
I6
aI0
aI0
aI0
aa(lp59
I19
aI0
aI0
aI0
aa(lp60
I6
aI0
aI0
aI0
aa(lp61
I5
aI0
aI0
aI0
aa(lp62
I4
aI0
aI0
aI0
aa(lp63
I14
aI0
aI0
aI0
aa(lp64
I4
aI0
aI0
aI0
aa(lp65
I4
aI0
aI0
aI0
aa(lp66
I4
aI0
aI0
aI0
aa(lp67
I5
aI0
aI0
aI0
aa(lp68
I4
aI0
aI0
aI0
aa(lp69
I11
aI0
aI0
aI0
aa(lp70
I8
aI0
aI0
aI0
aa(lp71
I15
aI0
aI0
aI0
aa(lp72
I5
aI0
aI0
aI0
aa(lp73
I5
aI0
aI0
aI4
aa(lp74
I13
aI0
aI0
aI0
aa(lp75
I10
aI0
aI0
aI0
aa(lp76
I17
aI0
aI0
aI0
aa(lp77
I10
aI0
aI0
aI0
aa(lp78
I57
aI0
aI0
aI0
aa(lp79
I7
aI0
aI0
aI0
aa(lp80
I9
aI0
aI0
aI0
aa(lp81
I5
aI0
aI0
aI0
aa(lp82
I5
aI0
aI0
aI0
aa(lp83
I5
aI0
aI0
aI0
aa(lp84
I32
aI0
aI0
aI0
aa(lp85
I5
aI0
aI0
aI0
aa(lp86
I8
aI0
aI0
aI0
aa(lp87
I15
aI0
aI0
aI0
aa(lp88
I7
aI0
aI0
aI0
aa(lp89
I4
aI0
aI0
aI0
aa(lp90
I6
aI0
aI0
aI0
aa(lp91
I12
aI0
aI0
aI0
aa(lp92
I16
aI0
aI0
aI0
aa(lp93
I12
aI0
aI0
aI0
aa(lp94
I3
aI0
aI0
aI0
aa(lp95
I18
aI0
aI0
aI0
aa(lp96
I27
aI0
aI0
aI0
aa(lp97
I11
aI0
aI0
aI0
aa(lp98
I4
aI0
aI0
aI0
aa(lp99
I6
aI0
aI0
aI0
aa(lp100
I11
aI0
aI0
aI0
aa(lp101
I14
aI0
aI0
aI0
aa.